target datalayout = "e-m:e-p270:32:32-p271:32:32-p272:64:64-i64:64-i128:128-f80:128-n8:16:32:64-S128"
target triple = "x86_64-unknown-linux-gnu"

%"class.zmq::reaper_t" = type <{ %"class.zmq::object_t.base", [4 x i8], %"struct.zmq::i_poll_events", %"class.zmq::mailbox_t", ptr, ptr, i32, i8, [3 x i8], i32, [4 x i8] }>
%"class.zmq::object_t.base" = type <{ ptr, ptr, i32 }>
%"struct.zmq::i_poll_events" = type { ptr }
%"class.zmq::mailbox_t" = type <{ %"class.zmq::i_mailbox", %"class.zmq::ypipe_t", %"class.zmq::signaler_t", [4 x i8], %"class.zmq::mutex_t", i8, [7 x i8] }>
%"class.zmq::i_mailbox" = type { ptr }
%"class.zmq::ypipe_t" = type { %"class.zmq::ypipe_base_t", %"class.zmq::yqueue_t", ptr, ptr, ptr, %"class.zmq::atomic_ptr_t.0" }
%"class.zmq::ypipe_base_t" = type { ptr }
%"class.zmq::yqueue_t" = type { ptr, i32, ptr, i32, ptr, i32, %"class.zmq::atomic_ptr_t" }
%"class.zmq::atomic_ptr_t" = type { %"struct.std::atomic" }
%"struct.std::atomic" = type { %"struct.std::__atomic_base" }
%"struct.std::__atomic_base" = type { ptr }
%"class.zmq::atomic_ptr_t.0" = type { %"struct.std::atomic.1" }
%"struct.std::atomic.1" = type { %"struct.std::__atomic_base.2" }
%"struct.std::__atomic_base.2" = type { ptr }
%"class.zmq::signaler_t" = type { i32, i32, i32 }
%"class.zmq::mutex_t" = type <{ %union.pthread_mutex_t, %union.pthread_mutexattr_t, [4 x i8] }>
%union.pthread_mutex_t = type { %struct.__pthread_mutex_s }
%struct.__pthread_mutex_s = type { i32, i32, i32, i32, i32, i16, i16, %struct.__pthread_internal_list }
%struct.__pthread_internal_list = type { ptr, ptr }
%union.pthread_mutexattr_t = type { i32 }

; Function Attrs: mustprogress uwtable
define void @_ZN3zmq8reaper_t12process_reapEPNS_13socket_base_tE(ptr noundef nonnull align 8 dereferenceable(240) %this, ptr noundef %socket_) unnamed_addr #0 align 2 {
entry:
  %this.addr = alloca ptr, align 8
  %socket_.addr = alloca ptr, align 8
  store ptr %this, ptr %this.addr, align 8
  store ptr %socket_, ptr %socket_.addr, align 8
  %this1 = load ptr, ptr %this.addr, align 8
  %0 = load ptr, ptr %socket_.addr, align 8
  %_poller = getelementptr inbounds %"class.zmq::reaper_t", ptr %this1, i32 0, i32 5
  %1 = load ptr, ptr %_poller, align 8
  call void @_ZN3zmq13socket_base_t13start_reapingEPNS_7epoll_tE(ptr noundef nonnull align 8 dereferenceable(1825) %0, ptr noundef %1)
  %_sockets = getelementptr inbounds %"class.zmq::reaper_t", ptr %this1, i32 0, i32 6
  %2 = load i32, ptr %_sockets, align 8
  %inc = add nsw i32 %2, 1
  store i32 %inc, ptr %_sockets, align 8
  ret void
}