; Function Attrs: mustprogress uwtable
define void @_ZN3zmq8reaper_t12process_reapEPNS_13socket_base_tE(ptr nocapture noundef nonnull align 8 dereferenceable(240) %this, ptr noundef nonnull %socket_) unnamed_addr #0 align 2 {
entry:
  %_poller = getelementptr inbounds i8, ptr %this, i64 216
  %0 = load ptr, ptr %_poller, align 8
  tail call void @_ZN3zmq13socket_base_t13start_reapingEPNS_7epoll_tE(ptr noundef nonnull align 8 dereferenceable(1825) %socket_, ptr noundef %0)
  %_sockets = getelementptr inbounds i8, ptr %this, i64 224
  %1 = load i32, ptr %_sockets, align 8
  %inc = add nsw i32 %1, 1
  store i32 %inc, ptr %_sockets, align 8
  ret void
}